; Function Attrs: inlinehint nounwind sspstrong uwtable
define internal fastcc ptr @shape_get_next(ptr noundef %0, i64 noundef %1, i64 noundef %2, i1 noundef zeroext %3) unnamed_addr #6 {
  %5 = alloca i8, align 1
  %6 = getelementptr inbounds nuw i8, ptr %0, i64 24
  %7 = load i8, ptr %6, align 8, !tbaa !27
  %8 = icmp eq i8 %7, 4
  br i1 %8, label %49, label %9, !prof !28

9:                                                ; preds = %4
  %10 = inttoptr i64 %1 to ptr
  %11 = load i64, ptr %10, align 8, !tbaa !24
  %12 = and i64 %11, 31
  %13 = icmp eq i64 %12, 1
  br i1 %13, label %14, label %20

14:                                               ; preds = %9
  %15 = tail call i64 @rb_obj_class(i64 noundef %1) #15
  %16 = inttoptr i64 %15 to ptr
  %17 = getelementptr inbounds nuw i8, ptr %16, i64 148
  %18 = load i8, ptr %17, align 4, !tbaa !50
  %19 = icmp ult i8 %18, 8
  br label %20

20:                                               ; preds = %14, %9
  %.019 = phi i1 [ %19, %14 ], [ true, %9 ]
  call void @llvm.lifetime.start.p0(i64 1, ptr nonnull %5) #15
  %21 = call fastcc ptr @get_next_shape_internal(ptr noundef nonnull %0, i64 noundef %2, i32 noundef 1, ptr noundef %5, i1 noundef zeroext %.019)
  %22 = load i64, ptr %10, align 8, !tbaa !24
  %23 = and i64 %22, 31
  %24 = icmp eq i64 %23, 1
  br i1 %24, label %25, label %48

25:                                               ; preds = %20
  %26 = tail call i64 @rb_obj_class(i64 noundef %1) #15
  %27 = getelementptr inbounds nuw i8, ptr %21, i64 16
  %28 = load i32, ptr %27, align 8, !tbaa !40
  %29 = inttoptr i64 %26 to ptr
  %30 = getelementptr inbounds nuw i8, ptr %29, i64 144
  %31 = load i32, ptr %30, align 8, !tbaa !51
  %32 = icmp ugt i32 %28, %31
  br i1 %32, label %33, label %34

33:                                               ; preds = %25
  store i32 %28, ptr %30, align 8, !tbaa !51
  br label %34

34:                                               ; preds = %33, %25
  %35 = load i8, ptr %5, align 1, !tbaa !43, !range !52, !noundef !53
  %36 = trunc nuw i8 %35 to i1
  br i1 %36, label %37, label %48

37:                                               ; preds = %34
  %38 = getelementptr inbounds nuw i8, ptr %29, i64 148
  %39 = load i8, ptr %38, align 4, !tbaa !50
  %40 = add i8 %39, 1
  store i8 %40, ptr %38, align 4, !tbaa !50
  br i1 %3, label %41, label %48

41:                                               ; preds = %37
  %42 = tail call zeroext i1 @rb_warning_category_enabled_p(i32 noundef 3) #15
  br i1 %42, label %43, label %48

43:                                               ; preds = %41
  %44 = load i8, ptr %38, align 4, !tbaa !50
  %45 = icmp ugt i8 %44, 7
  br i1 %45, label %46, label %48

46:                                               ; preds = %43
  %47 = tail call i64 @rb_class_path(i64 noundef %26) #15
  tail call void (i32, ptr, ...) @rb_category_warn(i32 noundef 3, ptr noundef nonnull @.str.4, i64 noundef %47, i32 noundef 8) #17
  br label %48

48:                                               ; preds = %34, %43, %46, %41, %37, %20
  call void @llvm.lifetime.end.p0(i64 1, ptr nonnull %5) #15
  br label %49

49:                                               ; preds = %4, %48
  %.0 = phi ptr [ %21, %48 ], [ %0, %4 ]
  ret ptr %.0
}